; Function Attrs: mustprogress nofree norecurse nosync nounwind willreturn memory(argmem: write) uwtable
define void @_ZN4LIEF2PE20FunctionOverrideInfoC2Ejjj(ptr noundef nonnull writeonly align 8 captures(none) dereferenceable(64) initializes((0, 12), (16, 64)) %0, i32 noundef %1, i32 noundef %2, i32 noundef %3) unnamed_addr #1 align 2 {
  store i32 %1, ptr %0, align 8, !tbaa !3
  %5 = getelementptr inbounds nuw i8, ptr %0, i64 4
  store i32 %2, ptr %5, align 4, !tbaa !19
  %6 = getelementptr inbounds nuw i8, ptr %0, i64 8
  store i32 %3, ptr %6, align 8, !tbaa !20
  %7 = getelementptr inbounds nuw i8, ptr %0, i64 16
  tail call void @llvm.memset.p0.i64(ptr noundef nonnull align 8 dereferenceable(48) %7, i8 0, i64 48, i1 false)
  ret void
}